; Function Attrs: mustprogress uwtable
define internal void @_ZNK6google8protobuf12_GLOBAL__N_124FieldValuePrinterWrapper15PrintMessageEndERKNS0_7MessageEiibPNS0_10TextFormat17BaseTextGeneratorE(ptr noundef nonnull readonly align 8 captures(none) dereferenceable(16) %0, ptr noundef nonnull align 8 dereferenceable(16) %1, i32 noundef %2, i32 noundef %3, i1 noundef zeroext %4, ptr noundef %5) unnamed_addr #3 align 2 personality ptr @__gxx_personality_v0 {
  %7 = alloca %"class.std::__cxx11::basic_string", align 8
  call void @llvm.lifetime.start.p0(i64 32, ptr nonnull %7) #31
  %8 = getelementptr inbounds nuw i8, ptr %0, i64 8
  %9 = load ptr, ptr %8, align 8, !tbaa !214
  %10 = load ptr, ptr %9, align 8, !tbaa !24
  %11 = getelementptr inbounds nuw i8, ptr %10, i64 112
  %12 = load ptr, ptr %11, align 8
  call void %12(ptr dead_on_unwind nonnull writable sret(%"class.std::__cxx11::basic_string") align 8 %7, ptr noundef nonnull align 8 dereferenceable(16) %9, ptr noundef nonnull align 8 dereferenceable(16) %1, i32 noundef %2, i32 noundef %3, i1 noundef zeroext %4)
  %13 = load ptr, ptr %7, align 8, !tbaa !48
  %14 = getelementptr inbounds nuw i8, ptr %7, i64 8
  %15 = load i64, ptr %14, align 8, !tbaa !9
  %16 = load ptr, ptr %5, align 8, !tbaa !24
  %17 = getelementptr inbounds nuw i8, ptr %16, i64 40
  %18 = load ptr, ptr %17, align 8
  invoke void %18(ptr noundef nonnull align 8 dereferenceable(8) %5, ptr noundef %13, i64 noundef %15)
          to label %_ZN6google8protobuf10TextFormat17BaseTextGenerator11PrintStringERKNSt7__cxx1112basic_stringIcSt11char_traitsIcESaIcEEE.exit unwind label %24

_ZN6google8protobuf10TextFormat17BaseTextGenerator11PrintStringERKNSt7__cxx1112basic_stringIcSt11char_traitsIcESaIcEEE.exit: ; preds = %6
  %19 = load ptr, ptr %7, align 8, !tbaa !48
  %20 = getelementptr inbounds nuw i8, ptr %7, i64 16
  %21 = icmp eq ptr %19, %20
  br i1 %21, label %_ZNKSt7__cxx1112basic_stringIcSt11char_traitsIcESaIcEE11_M_is_localEv.exit.thread.i.i, label %_ZNKSt7__cxx1112basic_stringIcSt11char_traitsIcESaIcEE11_M_is_localEv.exit.i.i

_ZNKSt7__cxx1112basic_stringIcSt11char_traitsIcESaIcEE11_M_is_localEv.exit.thread.i.i: ; preds = %_ZN6google8protobuf10TextFormat17BaseTextGenerator11PrintStringERKNSt7__cxx1112basic_stringIcSt11char_traitsIcESaIcEEE.exit
  %22 = load i64, ptr %14, align 8, !tbaa !9
  %23 = icmp ult i64 %22, 16
  call void @llvm.assume(i1 %23)
  br label %_ZNSt7__cxx1112basic_stringIcSt11char_traitsIcESaIcEED2Ev.exit

_ZNKSt7__cxx1112basic_stringIcSt11char_traitsIcESaIcEE11_M_is_localEv.exit.i.i: ; preds = %_ZN6google8protobuf10TextFormat17BaseTextGenerator11PrintStringERKNSt7__cxx1112basic_stringIcSt11char_traitsIcESaIcEEE.exit
  call void @_ZdlPv(ptr noundef %19) #34
  br label %_ZNSt7__cxx1112basic_stringIcSt11char_traitsIcESaIcEED2Ev.exit

_ZNSt7__cxx1112basic_stringIcSt11char_traitsIcESaIcEED2Ev.exit: ; preds = %_ZNKSt7__cxx1112basic_stringIcSt11char_traitsIcESaIcEE11_M_is_localEv.exit.thread.i.i, %_ZNKSt7__cxx1112basic_stringIcSt11char_traitsIcESaIcEE11_M_is_localEv.exit.i.i
  call void @llvm.lifetime.end.p0(i64 32, ptr nonnull %7) #31
  ret void

24:                                               ; preds = %6
  %25 = landingpad { ptr, i32 }
          cleanup
  %26 = load ptr, ptr %7, align 8, !tbaa !48
  %27 = getelementptr inbounds nuw i8, ptr %7, i64 16
  %28 = icmp eq ptr %26, %27
  br i1 %28, label %_ZNKSt7__cxx1112basic_stringIcSt11char_traitsIcESaIcEE11_M_is_localEv.exit.thread.i.i8, label %_ZNKSt7__cxx1112basic_stringIcSt11char_traitsIcESaIcEE11_M_is_localEv.exit.i.i7

_ZNKSt7__cxx1112basic_stringIcSt11char_traitsIcESaIcEE11_M_is_localEv.exit.thread.i.i8: ; preds = %24
  %29 = load i64, ptr %14, align 8, !tbaa !9
  %30 = icmp ult i64 %29, 16
  call void @llvm.assume(i1 %30)
  br label %_ZNSt7__cxx1112basic_stringIcSt11char_traitsIcESaIcEED2Ev.exit9

_ZNKSt7__cxx1112basic_stringIcSt11char_traitsIcESaIcEE11_M_is_localEv.exit.i.i7: ; preds = %24
  call void @_ZdlPv(ptr noundef %26) #34
  br label %_ZNSt7__cxx1112basic_stringIcSt11char_traitsIcESaIcEED2Ev.exit9

_ZNSt7__cxx1112basic_stringIcSt11char_traitsIcESaIcEED2Ev.exit9: ; preds = %_ZNKSt7__cxx1112basic_stringIcSt11char_traitsIcESaIcEE11_M_is_localEv.exit.thread.i.i8, %_ZNKSt7__cxx1112basic_stringIcSt11char_traitsIcESaIcEE11_M_is_localEv.exit.i.i7
  call void @llvm.lifetime.end.p0(i64 32, ptr nonnull %7) #31
  resume { ptr, i32 } %25
}